target datalayout = "e-m:e-p270:32:32-p271:32:32-p272:64:64-i64:64-i128:128-f80:128-n8:16:32:64-S128"
target triple = "x86_64-unknown-linux-gnu"

%struct.QTailQLink = type { ptr, ptr }
%union.QemuInputEventQueueHead = type { %struct.QTailQLink }
%struct.InputEvent = type { i32, %union.anon.1 }
%union.anon.1 = type { %struct.InputKeyEventWrapper }
%struct.InputKeyEventWrapper = type { ptr }
%struct.InputKeyEvent = type { ptr, i8 }
%struct.KeyValue = type { i32, %union.anon.2 }
%union.anon.2 = type { %struct.IntWrapper }
%struct.IntWrapper = type { i64 }
%struct.QKeyCodeWrapper = type { i32 }
%struct.QemuInputEventQueue = type { i32, ptr, i32, ptr, ptr, %union.anon.3 }
%union.anon.3 = type { %struct.QTailQLink }

@.str = private unnamed_addr constant [19 x i8] c"../qemu/ui/input.c\00", align 1
@.str.3 = private unnamed_addr constant [92 x i8] c"!(evt->type == INPUT_EVENT_KIND_KEY && evt->u.key.data->key->type == KEY_VALUE_KIND_NUMBER)\00", align 1
@__PRETTY_FUNCTION__.qemu_input_event_send = private unnamed_addr constant [56 x i8] c"void qemu_input_event_send(QemuConsole *, InputEvent *)\00", align 1
@kbd_queue = internal global %union.QemuInputEventQueueHead { %struct.QTailQLink { ptr null, ptr @kbd_queue } }, align 8
@queue_count = internal global i32 0, align 4
@queue_limit = internal global i32 1024, align 4

; Function Attrs: nounwind sspstrong uwtable
define internal void @qemu_input_queue_sync(ptr noundef %queue) #0 {
entry:
  %queue.addr = alloca ptr, align 8
  %item = alloca ptr, align 8
  store ptr %queue, ptr %queue.addr, align 8
  %call = call noalias ptr @g_malloc0_n(i64 noundef 1, i64 noundef 56) #7
  store ptr %call, ptr %item, align 8
  %0 = load ptr, ptr %item, align 8
  %type = getelementptr inbounds %struct.QemuInputEventQueue, ptr %0, i32 0, i32 0
  store i32 3, ptr %type, align 8
  br label %do.body

do.body:                                          ; preds = %entry
  %1 = load ptr, ptr %item, align 8
  %node = getelementptr inbounds %struct.QemuInputEventQueue, ptr %1, i32 0, i32 5
  store ptr null, ptr %node, align 8
  %2 = load ptr, ptr %queue.addr, align 8
  %tql_prev = getelementptr inbounds %struct.QTailQLink, ptr %2, i32 0, i32 1
  %3 = load ptr, ptr %tql_prev, align 8
  %4 = load ptr, ptr %item, align 8
  %node1 = getelementptr inbounds %struct.QemuInputEventQueue, ptr %4, i32 0, i32 5
  %tql_prev2 = getelementptr inbounds %struct.QTailQLink, ptr %node1, i32 0, i32 1
  store ptr %3, ptr %tql_prev2, align 8
  %5 = load ptr, ptr %item, align 8
  %6 = load ptr, ptr %queue.addr, align 8
  %tql_prev3 = getelementptr inbounds %struct.QTailQLink, ptr %6, i32 0, i32 1
  %7 = load ptr, ptr %tql_prev3, align 8
  %tql_next = getelementptr inbounds %struct.QTailQLink, ptr %7, i32 0, i32 0
  store ptr %5, ptr %tql_next, align 8
  %8 = load ptr, ptr %item, align 8
  %node4 = getelementptr inbounds %struct.QemuInputEventQueue, ptr %8, i32 0, i32 5
  %9 = load ptr, ptr %queue.addr, align 8
  %tql_prev5 = getelementptr inbounds %struct.QTailQLink, ptr %9, i32 0, i32 1
  store ptr %node4, ptr %tql_prev5, align 8
  br label %do.end

do.end:                                           ; preds = %do.body
  %10 = load i32, ptr @queue_count, align 4
  %inc = add i32 %10, 1
  store i32 %inc, ptr @queue_count, align 4
  ret void
}

; Function Attrs: nounwind sspstrong uwtable
define internal void @qemu_input_queue_event(ptr noundef %queue, ptr noundef %src, ptr noundef %evt) #0 {
entry:
  %queue.addr = alloca ptr, align 8
  %src.addr = alloca ptr, align 8
  %evt.addr = alloca ptr, align 8
  %item = alloca ptr, align 8
  store ptr %queue, ptr %queue.addr, align 8
  store ptr %src, ptr %src.addr, align 8
  store ptr %evt, ptr %evt.addr, align 8
  %call = call noalias ptr @g_malloc0_n(i64 noundef 1, i64 noundef 56) #7
  store ptr %call, ptr %item, align 8
  %0 = load ptr, ptr %item, align 8
  %type = getelementptr inbounds %struct.QemuInputEventQueue, ptr %0, i32 0, i32 0
  store i32 2, ptr %type, align 8
  %1 = load ptr, ptr %src.addr, align 8
  %2 = load ptr, ptr %item, align 8
  %src1 = getelementptr inbounds %struct.QemuInputEventQueue, ptr %2, i32 0, i32 3
  store ptr %1, ptr %src1, align 8
  %3 = load ptr, ptr %evt.addr, align 8
  %4 = load ptr, ptr %item, align 8
  %evt2 = getelementptr inbounds %struct.QemuInputEventQueue, ptr %4, i32 0, i32 4
  store ptr %3, ptr %evt2, align 8
  br label %do.body

do.body:                                          ; preds = %entry
  %5 = load ptr, ptr %item, align 8
  %node = getelementptr inbounds %struct.QemuInputEventQueue, ptr %5, i32 0, i32 5
  store ptr null, ptr %node, align 8
  %6 = load ptr, ptr %queue.addr, align 8
  %tql_prev = getelementptr inbounds %struct.QTailQLink, ptr %6, i32 0, i32 1
  %7 = load ptr, ptr %tql_prev, align 8
  %8 = load ptr, ptr %item, align 8
  %node3 = getelementptr inbounds %struct.QemuInputEventQueue, ptr %8, i32 0, i32 5
  %tql_prev4 = getelementptr inbounds %struct.QTailQLink, ptr %node3, i32 0, i32 1
  store ptr %7, ptr %tql_prev4, align 8
  %9 = load ptr, ptr %item, align 8
  %10 = load ptr, ptr %queue.addr, align 8
  %tql_prev5 = getelementptr inbounds %struct.QTailQLink, ptr %10, i32 0, i32 1
  %11 = load ptr, ptr %tql_prev5, align 8
  %tql_next = getelementptr inbounds %struct.QTailQLink, ptr %11, i32 0, i32 0
  store ptr %9, ptr %tql_next, align 8
  %12 = load ptr, ptr %item, align 8
  %node6 = getelementptr inbounds %struct.QemuInputEventQueue, ptr %12, i32 0, i32 5
  %13 = load ptr, ptr %queue.addr, align 8
  %tql_prev7 = getelementptr inbounds %struct.QTailQLink, ptr %13, i32 0, i32 1
  store ptr %node6, ptr %tql_prev7, align 8
  br label %do.end

do.end:                                           ; preds = %do.body
  %14 = load i32, ptr @queue_count, align 4
  %inc = add i32 %14, 1
  store i32 %inc, ptr @queue_count, align 4
  ret void
}

; Function Attrs: nounwind sspstrong uwtable
define dso_local void @qemu_input_event_sync() #0 {
entry:
  %call = call zeroext i1 @runstate_is_running()
  br i1 %call, label %if.end, label %land.lhs.true

land.lhs.true:                                    ; preds = %entry
  %call1 = call zeroext i1 @runstate_check(i32 noundef 12)
  br i1 %call1, label %if.end, label %if.then

if.then:                                          ; preds = %land.lhs.true
  br label %return

if.end:                                           ; preds = %land.lhs.true, %entry
  call void @replay_input_sync_event()
  br label %return

return:                                           ; preds = %if.end, %if.then
  ret void
}

; Function Attrs: nounwind sspstrong uwtable
define dso_local void @qemu_input_event_send(ptr noundef %src, ptr noundef %evt) #0 {
entry:
  %src.addr = alloca ptr, align 8
  %evt.addr = alloca ptr, align 8
  store ptr %src, ptr %src.addr, align 8
  store ptr %evt, ptr %evt.addr, align 8
  %0 = load ptr, ptr %evt.addr, align 8
  %type = getelementptr inbounds %struct.InputEvent, ptr %0, i32 0, i32 0
  %1 = load i32, ptr %type, align 8
  %cmp = icmp eq i32 %1, 0
  br i1 %cmp, label %land.lhs.true, label %if.then

land.lhs.true:                                    ; preds = %entry
  %2 = load ptr, ptr %evt.addr, align 8
  %u = getelementptr inbounds %struct.InputEvent, ptr %2, i32 0, i32 1
  %data = getelementptr inbounds %struct.InputKeyEventWrapper, ptr %u, i32 0, i32 0
  %3 = load ptr, ptr %data, align 8
  %key = getelementptr inbounds %struct.InputKeyEvent, ptr %3, i32 0, i32 0
  %4 = load ptr, ptr %key, align 8
  %type1 = getelementptr inbounds %struct.KeyValue, ptr %4, i32 0, i32 0
  %5 = load i32, ptr %type1, align 8
  %cmp2 = icmp eq i32 %5, 0
  br i1 %cmp2, label %if.else, label %if.then

if.then:                                          ; preds = %land.lhs.true, %entry
  br label %if.end

if.else:                                          ; preds = %land.lhs.true
  call void @__assert_fail(ptr noundef @.str.3, ptr noundef @.str, i32 noundef 362, ptr noundef @__PRETTY_FUNCTION__.qemu_input_event_send) #8
  unreachable

if.end:                                           ; preds = %if.then
  %6 = load ptr, ptr %evt.addr, align 8
  %type3 = getelementptr inbounds %struct.InputEvent, ptr %6, i32 0, i32 0
  %7 = load i32, ptr %type3, align 8
  %cmp4 = icmp eq i32 %7, 0
  br i1 %cmp4, label %land.lhs.true5, label %if.end18

land.lhs.true5:                                   ; preds = %if.end
  %8 = load ptr, ptr %evt.addr, align 8
  %u6 = getelementptr inbounds %struct.InputEvent, ptr %8, i32 0, i32 1
  %data7 = getelementptr inbounds %struct.InputKeyEventWrapper, ptr %u6, i32 0, i32 0
  %9 = load ptr, ptr %data7, align 8
  %key8 = getelementptr inbounds %struct.InputKeyEvent, ptr %9, i32 0, i32 0
  %10 = load ptr, ptr %key8, align 8
  %u9 = getelementptr inbounds %struct.KeyValue, ptr %10, i32 0, i32 1
  %data10 = getelementptr inbounds %struct.QKeyCodeWrapper, ptr %u9, i32 0, i32 0
  %11 = load i32, ptr %data10, align 8
  %cmp11 = icmp eq i32 %11, 80
  br i1 %cmp11, label %if.then12, label %if.end18

if.then12:                                        ; preds = %land.lhs.true5
  %12 = load ptr, ptr %evt.addr, align 8
  %u13 = getelementptr inbounds %struct.InputEvent, ptr %12, i32 0, i32 1
  %data14 = getelementptr inbounds %struct.InputKeyEventWrapper, ptr %u13, i32 0, i32 0
  %13 = load ptr, ptr %data14, align 8
  %key15 = getelementptr inbounds %struct.InputKeyEvent, ptr %13, i32 0, i32 0
  %14 = load ptr, ptr %key15, align 8
  %u16 = getelementptr inbounds %struct.KeyValue, ptr %14, i32 0, i32 1
  %data17 = getelementptr inbounds %struct.QKeyCodeWrapper, ptr %u16, i32 0, i32 0
  store i32 94, ptr %data17, align 8
  br label %if.end18

if.end18:                                         ; preds = %if.then12, %land.lhs.true5, %if.end
  %call = call zeroext i1 @runstate_is_running()
  br i1 %call, label %if.end22, label %land.lhs.true19

land.lhs.true19:                                  ; preds = %if.end18
  %call20 = call zeroext i1 @runstate_check(i32 noundef 12)
  br i1 %call20, label %if.end22, label %if.then21

if.then21:                                        ; preds = %land.lhs.true19
  br label %return

if.end22:                                         ; preds = %land.lhs.true19, %if.end18
  %15 = load ptr, ptr %src.addr, align 8
  %16 = load ptr, ptr %evt.addr, align 8
  call void @replay_input_event(ptr noundef %15, ptr noundef %16)
  br label %return

return:                                           ; preds = %if.end22, %if.then21
  ret void
}

; Function Attrs: nounwind sspstrong uwtable
define internal ptr @qemu_input_event_new_key(ptr noundef %key, i1 noundef zeroext %down) #0 {
entry:
  %key.addr = alloca ptr, align 8
  %down.addr = alloca i8, align 1
  %evt = alloca ptr, align 8
  store ptr %key, ptr %key.addr, align 8
  %frombool = zext i1 %down to i8
  store i8 %frombool, ptr %down.addr, align 1
  %call = call noalias ptr @g_malloc0_n(i64 noundef 1, i64 noundef 16) #7
  store ptr %call, ptr %evt, align 8
  %call1 = call noalias ptr @g_malloc0_n(i64 noundef 1, i64 noundef 16) #7
  %0 = load ptr, ptr %evt, align 8
  %u = getelementptr inbounds %struct.InputEvent, ptr %0, i32 0, i32 1
  %data = getelementptr inbounds %struct.InputKeyEventWrapper, ptr %u, i32 0, i32 0
  store ptr %call1, ptr %data, align 8
  %1 = load ptr, ptr %evt, align 8
  %type = getelementptr inbounds %struct.InputEvent, ptr %1, i32 0, i32 0
  store i32 0, ptr %type, align 8
  %2 = load ptr, ptr %key.addr, align 8
  %3 = load ptr, ptr %evt, align 8
  %u2 = getelementptr inbounds %struct.InputEvent, ptr %3, i32 0, i32 1
  %data3 = getelementptr inbounds %struct.InputKeyEventWrapper, ptr %u2, i32 0, i32 0
  %4 = load ptr, ptr %data3, align 8
  %key4 = getelementptr inbounds %struct.InputKeyEvent, ptr %4, i32 0, i32 0
  store ptr %2, ptr %key4, align 8
  %5 = load i8, ptr %down.addr, align 1
  %tobool = trunc i8 %5 to i1
  %6 = load ptr, ptr %evt, align 8
  %u5 = getelementptr inbounds %struct.InputEvent, ptr %6, i32 0, i32 1
  %data6 = getelementptr inbounds %struct.InputKeyEventWrapper, ptr %u5, i32 0, i32 0
  %7 = load ptr, ptr %data6, align 8
  %down7 = getelementptr inbounds %struct.InputKeyEvent, ptr %7, i32 0, i32 1
  %frombool8 = zext i1 %tobool to i8
  store i8 %frombool8, ptr %down7, align 8
  %8 = load ptr, ptr %evt, align 8
  ret ptr %8
}

; Function Attrs: nounwind sspstrong uwtable
define dso_local void @qemu_input_event_send_key(ptr noundef %src, ptr noundef %key, i1 noundef zeroext %down) #0 {
entry:
  %src.addr = alloca ptr, align 8
  %key.addr = alloca ptr, align 8
  %down.addr = alloca i8, align 1
  %evt = alloca ptr, align 8
  store ptr %src, ptr %src.addr, align 8
  store ptr %key, ptr %key.addr, align 8
  %frombool = zext i1 %down to i8
  store i8 %frombool, ptr %down.addr, align 1
  %0 = load ptr, ptr %key.addr, align 8
  %1 = load i8, ptr %down.addr, align 1
  %tobool = trunc i8 %1 to i1
  %call = call ptr @qemu_input_event_new_key(ptr noundef %0, i1 noundef zeroext %tobool)
  store ptr %call, ptr %evt, align 8
  %2 = load ptr, ptr @kbd_queue, align 8
  %cmp = icmp eq ptr %2, null
  br i1 %cmp, label %if.then, label %if.else

if.then:                                          ; preds = %entry
  %3 = load ptr, ptr %src.addr, align 8
  %4 = load ptr, ptr %evt, align 8
  call void @qemu_input_event_send(ptr noundef %3, ptr noundef %4)
  call void @qemu_input_event_sync()
  %5 = load ptr, ptr %evt, align 8
  call void @qapi_free_InputEvent(ptr noundef %5)
  br label %if.end4

if.else:                                          ; preds = %entry
  %6 = load i32, ptr @queue_count, align 4
  %7 = load i32, ptr @queue_limit, align 4
  %cmp1 = icmp ult i32 %6, %7
  br i1 %cmp1, label %if.then2, label %if.else3

if.then2:                                         ; preds = %if.else
  %8 = load ptr, ptr %src.addr, align 8
  %9 = load ptr, ptr %evt, align 8
  call void @qemu_input_queue_event(ptr noundef @kbd_queue, ptr noundef %8, ptr noundef %9)
  call void @qemu_input_queue_sync(ptr noundef @kbd_queue)
  br label %if.end

if.else3:                                         ; preds = %if.else
  %10 = load ptr, ptr %evt, align 8
  call void @qapi_free_InputEvent(ptr noundef %10)
  br label %if.end

if.end:                                           ; preds = %if.else3, %if.then2
  br label %if.end4

if.end4:                                          ; preds = %if.end, %if.then
  ret void
}