; Function Attrs: nounwind sspstrong uwtable
define dso_local void @qemu_input_event_send_key(ptr noundef %src, ptr noundef %key, i1 noundef zeroext %down) local_unnamed_addr #0 {
entry:
  %frombool.i = zext i1 %down to i8
  %call.i = tail call noalias dereferenceable_or_null(16) ptr @g_malloc0_n(i64 noundef 1, i64 noundef 16) #11
  %call1.i = tail call noalias dereferenceable_or_null(16) ptr @g_malloc0_n(i64 noundef 1, i64 noundef 16) #11
  %u.i = getelementptr inbounds nuw i8, ptr %call.i, i64 8
  store ptr %call1.i, ptr %u.i, align 8
  store i32 0, ptr %call.i, align 8
  store ptr %key, ptr %call1.i, align 8
  %down7.i = getelementptr inbounds nuw i8, ptr %call1.i, i64 8
  store i8 %frombool.i, ptr %down7.i, align 8
  %0 = load ptr, ptr @kbd_queue, align 8
  %cmp = icmp eq ptr %0, null
  br i1 %cmp, label %land.lhs.true.i, label %if.else

land.lhs.true.i:                                  ; preds = %entry
  %1 = load i32, ptr %key, align 8
  %cmp2.i = icmp eq i32 %1, 0
  br i1 %cmp2.i, label %if.else.i, label %land.lhs.true5.i

if.else.i:                                        ; preds = %land.lhs.true.i
  tail call void @__assert_fail(ptr noundef nonnull @.str.3, ptr noundef nonnull @.str, i32 noundef 362, ptr noundef nonnull @__PRETTY_FUNCTION__.qemu_input_event_send) #13
  unreachable

land.lhs.true5.i:                                 ; preds = %land.lhs.true.i
  %u9.i = getelementptr inbounds nuw i8, ptr %key, i64 8
  %2 = load i32, ptr %u9.i, align 8
  %cmp11.i = icmp eq i32 %2, 80
  br i1 %cmp11.i, label %if.then12.i, label %if.end18.i

if.then12.i:                                      ; preds = %land.lhs.true5.i
  store i32 94, ptr %u9.i, align 8
  br label %if.end18.i

if.end18.i:                                       ; preds = %if.then12.i, %land.lhs.true5.i
  %call.i5 = tail call zeroext i1 @runstate_is_running() #12
  br i1 %call.i5, label %if.end22.i, label %land.lhs.true19.i

land.lhs.true19.i:                                ; preds = %if.end18.i
  %call20.i = tail call zeroext i1 @runstate_check(i32 noundef 12) #12
  br i1 %call20.i, label %if.end22.i, label %qemu_input_event_send.exit

if.end22.i:                                       ; preds = %land.lhs.true19.i, %if.end18.i
  tail call void @replay_input_event(ptr noundef %src, ptr noundef nonnull %call.i) #12
  br label %qemu_input_event_send.exit

qemu_input_event_send.exit:                       ; preds = %land.lhs.true19.i, %if.end22.i
  %call.i7 = tail call zeroext i1 @runstate_is_running() #12
  br i1 %call.i7, label %if.end.i, label %land.lhs.true.i8

land.lhs.true.i8:                                 ; preds = %qemu_input_event_send.exit
  %call1.i9 = tail call zeroext i1 @runstate_check(i32 noundef 12) #12
  br i1 %call1.i9, label %if.end.i, label %qemu_input_event_sync.exit

if.end.i:                                         ; preds = %land.lhs.true.i8, %qemu_input_event_send.exit
  tail call void @replay_input_sync_event() #12
  br label %qemu_input_event_sync.exit

qemu_input_event_sync.exit:                       ; preds = %land.lhs.true.i8, %if.end.i
  tail call void @qapi_free_InputEvent(ptr noundef nonnull %call.i) #12
  br label %if.end4

if.else:                                          ; preds = %entry
  %3 = load i32, ptr @queue_count, align 4
  %cmp1 = icmp ult i32 %3, 1024
  br i1 %cmp1, label %if.then2, label %if.else3

if.then2:                                         ; preds = %if.else
  %call.i10 = tail call noalias dereferenceable_or_null(56) ptr @g_malloc0_n(i64 noundef 1, i64 noundef 56) #11
  store i32 2, ptr %call.i10, align 8
  %src1.i = getelementptr inbounds nuw i8, ptr %call.i10, i64 24
  store ptr %src, ptr %src1.i, align 8
  %evt2.i = getelementptr inbounds nuw i8, ptr %call.i10, i64 32
  store ptr %call.i, ptr %evt2.i, align 8
  %node.i = getelementptr inbounds nuw i8, ptr %call.i10, i64 40
  store ptr null, ptr %node.i, align 8
  %4 = load ptr, ptr getelementptr inbounds nuw (i8, ptr @kbd_queue, i64 8), align 8
  %tql_prev4.i = getelementptr inbounds nuw i8, ptr %call.i10, i64 48
  store ptr %4, ptr %tql_prev4.i, align 8
  store ptr %call.i10, ptr %4, align 8
  store ptr %node.i, ptr getelementptr inbounds nuw (i8, ptr @kbd_queue, i64 8), align 8
  %5 = load i32, ptr @queue_count, align 4
  %inc.i = add i32 %5, 1
  store i32 %inc.i, ptr @queue_count, align 4
  %call.i11 = tail call noalias dereferenceable_or_null(56) ptr @g_malloc0_n(i64 noundef 1, i64 noundef 56) #11
  store i32 3, ptr %call.i11, align 8
  %node.i12 = getelementptr inbounds nuw i8, ptr %call.i11, i64 40
  store ptr null, ptr %node.i12, align 8
  %6 = load ptr, ptr getelementptr inbounds nuw (i8, ptr @kbd_queue, i64 8), align 8
  %tql_prev2.i = getelementptr inbounds nuw i8, ptr %call.i11, i64 48
  store ptr %6, ptr %tql_prev2.i, align 8
  store ptr %call.i11, ptr %6, align 8
  store ptr %node.i12, ptr getelementptr inbounds nuw (i8, ptr @kbd_queue, i64 8), align 8
  %7 = load i32, ptr @queue_count, align 4
  %inc.i13 = add i32 %7, 1
  store i32 %inc.i13, ptr @queue_count, align 4
  br label %if.end4

if.else3:                                         ; preds = %if.else
  tail call void @qapi_free_InputEvent(ptr noundef nonnull %call.i) #12
  br label %if.end4

if.end4:                                          ; preds = %if.then2, %if.else3, %qemu_input_event_sync.exit
  ret void
}